target datalayout = "e-m:e-p270:32:32-p271:32:32-p272:64:64-i64:64-i128:128-f80:128-n8:16:32:64-S128"
target triple = "x86_64-unknown-linux-gnu"

; Function Attrs: mustprogress uwtable
define noundef i32 @_ZN6icu_7517UCharsTrieBuilder17writeValueAndTypeEaii(ptr noundef nonnull align 8 dereferenceable(112) %this, i8 noundef signext %hasValue, i32 noundef %value, i32 noundef %node) unnamed_addr #0 align 2 {
entry:
  %retval = alloca i32, align 4
  %this.addr = alloca ptr, align 8
  %hasValue.addr = alloca i8, align 1
  %value.addr = alloca i32, align 4
  %node.addr = alloca i32, align 4
  %intUnits = alloca [3 x i16], align 2
  %length = alloca i32, align 4
  store ptr %this, ptr %this.addr, align 8
  store i8 %hasValue, ptr %hasValue.addr, align 1
  store i32 %value, ptr %value.addr, align 4
  store i32 %node, ptr %node.addr, align 4
  %this1 = load ptr, ptr %this.addr, align 8
  %0 = load i8, ptr %hasValue.addr, align 1
  %tobool = icmp ne i8 %0, 0
  br i1 %tobool, label %if.end, label %if.then

if.then:                                          ; preds = %entry
  %1 = load i32, ptr %node.addr, align 4
  %vtable = load ptr, ptr %this1, align 8
  %vfn = getelementptr inbounds ptr, ptr %vtable, i64 15
  %2 = load ptr, ptr %vfn, align 8
  %call = call noundef i32 %2(ptr noundef nonnull align 8 dereferenceable(112) %this1, i32 noundef %1)
  store i32 %call, ptr %retval, align 4
  br label %return

if.end:                                           ; preds = %entry
  %3 = load i32, ptr %value.addr, align 4
  %cmp = icmp slt i32 %3, 0
  br i1 %cmp, label %if.then3, label %lor.lhs.false

lor.lhs.false:                                    ; preds = %if.end
  %4 = load i32, ptr %value.addr, align 4
  %cmp2 = icmp sgt i32 %4, 16646143
  br i1 %cmp2, label %if.then3, label %if.else

if.then3:                                         ; preds = %lor.lhs.false, %if.end
  %arrayidx = getelementptr inbounds [3 x i16], ptr %intUnits, i64 0, i64 0
  store i16 32704, ptr %arrayidx, align 2
  %5 = load i32, ptr %value.addr, align 4
  %shr = lshr i32 %5, 16
  %conv = trunc i32 %shr to i16
  %arrayidx4 = getelementptr inbounds [3 x i16], ptr %intUnits, i64 0, i64 1
  store i16 %conv, ptr %arrayidx4, align 2
  %6 = load i32, ptr %value.addr, align 4
  %conv5 = trunc i32 %6 to i16
  %arrayidx6 = getelementptr inbounds [3 x i16], ptr %intUnits, i64 0, i64 2
  store i16 %conv5, ptr %arrayidx6, align 2
  store i32 3, ptr %length, align 4
  br label %if.end19

if.else:                                          ; preds = %lor.lhs.false
  %7 = load i32, ptr %value.addr, align 4
  %cmp7 = icmp sle i32 %7, 255
  br i1 %cmp7, label %if.then8, label %if.else11

if.then8:                                         ; preds = %if.else
  %8 = load i32, ptr %value.addr, align 4
  %add = add nsw i32 %8, 1
  %shl = shl i32 %add, 6
  %conv9 = trunc i32 %shl to i16
  %arrayidx10 = getelementptr inbounds [3 x i16], ptr %intUnits, i64 0, i64 0
  store i16 %conv9, ptr %arrayidx10, align 2
  store i32 1, ptr %length, align 4
  br label %if.end18

if.else11:                                        ; preds = %if.else
  %9 = load i32, ptr %value.addr, align 4
  %shr12 = ashr i32 %9, 10
  %and = and i32 %shr12, 32704
  %add13 = add nsw i32 16448, %and
  %conv14 = trunc i32 %add13 to i16
  %arrayidx15 = getelementptr inbounds [3 x i16], ptr %intUnits, i64 0, i64 0
  store i16 %conv14, ptr %arrayidx15, align 2
  %10 = load i32, ptr %value.addr, align 4
  %conv16 = trunc i32 %10 to i16
  %arrayidx17 = getelementptr inbounds [3 x i16], ptr %intUnits, i64 0, i64 1
  store i16 %conv16, ptr %arrayidx17, align 2
  store i32 2, ptr %length, align 4
  br label %if.end18

if.end18:                                         ; preds = %if.else11, %if.then8
  br label %if.end19

if.end19:                                         ; preds = %if.end18, %if.then3
  %11 = load i32, ptr %node.addr, align 4
  %conv20 = trunc i32 %11 to i16
  %conv21 = zext i16 %conv20 to i32
  %arrayidx22 = getelementptr inbounds [3 x i16], ptr %intUnits, i64 0, i64 0
  %12 = load i16, ptr %arrayidx22, align 2
  %conv23 = zext i16 %12 to i32
  %or = or i32 %conv23, %conv21
  %conv24 = trunc i32 %or to i16
  store i16 %conv24, ptr %arrayidx22, align 2
  %arraydecay = getelementptr inbounds [3 x i16], ptr %intUnits, i64 0, i64 0
  %13 = load i32, ptr %length, align 4
  %call25 = call noundef i32 @_ZN6icu_7517UCharsTrieBuilder5writeEPKDsi(ptr noundef nonnull align 8 dereferenceable(112) %this1, ptr noundef %arraydecay, i32 noundef %13)
  store i32 %call25, ptr %retval, align 4
  br label %return

return:                                           ; preds = %if.end19, %if.then
  %14 = load i32, ptr %retval, align 4
  ret i32 %14
}