; Function Attrs: mustprogress uwtable
define noundef i32 @_ZN6icu_7517UCharsTrieBuilder17writeValueAndTypeEaii(ptr noundef nonnull align 8 dereferenceable(112) %this, i8 noundef signext %hasValue, i32 noundef %value, i32 noundef %node) unnamed_addr #0 align 2 {
entry:
  %intUnits = alloca [3 x i16], align 2
  %tobool.not = icmp eq i8 %hasValue, 0
  br i1 %tobool.not, label %if.then, label %if.end

if.then:                                          ; preds = %entry
  %vtable = load ptr, ptr %this, align 8
  %vfn = getelementptr inbounds i8, ptr %vtable, i64 120
  %0 = load ptr, ptr %vfn, align 8
  %call = tail call noundef i32 %0(ptr noundef nonnull align 8 dereferenceable(112) %this, i32 noundef %node)
  br label %return

if.end:                                           ; preds = %entry
  %or.cond = icmp ugt i32 %value, 16646143
  br i1 %or.cond, label %if.then3, label %if.else

if.then3:                                         ; preds = %if.end
  %shr = lshr i32 %value, 16
  %conv = trunc i32 %shr to i16
  %arrayidx4 = getelementptr inbounds i8, ptr %intUnits, i64 2
  store i16 %conv, ptr %arrayidx4, align 2
  %conv5 = trunc i32 %value to i16
  %arrayidx6 = getelementptr inbounds i8, ptr %intUnits, i64 4
  store i16 %conv5, ptr %arrayidx6, align 2
  br label %if.end19

if.else:                                          ; preds = %if.end
  %cmp7 = icmp ult i32 %value, 256
  br i1 %cmp7, label %if.then8, label %if.else11

if.then8:                                         ; preds = %if.else
  %value.tr = trunc i32 %value to i16
  %1 = shl nuw nsw i16 %value.tr, 6
  %conv9 = add nuw nsw i16 %1, 64
  br label %if.end19

if.else11:                                        ; preds = %if.else
  %shr12 = lshr i32 %value, 10
  %2 = trunc i32 %shr12 to i16
  %3 = and i16 %2, 16320
  %conv14 = add nuw nsw i16 %3, 16448
  %conv16 = trunc i32 %value to i16
  %arrayidx17 = getelementptr inbounds i8, ptr %intUnits, i64 2
  store i16 %conv16, ptr %arrayidx17, align 2
  br label %if.end19

if.end19:                                         ; preds = %if.then8, %if.else11, %if.then3
  %4 = phi i16 [ 32704, %if.then3 ], [ %conv9, %if.then8 ], [ %conv14, %if.else11 ]
  %length.0 = phi i32 [ 3, %if.then3 ], [ 1, %if.then8 ], [ 2, %if.else11 ]
  %5 = trunc i32 %node to i16
  %conv24 = or i16 %4, %5
  store i16 %conv24, ptr %intUnits, align 2
  %call25 = call noundef i32 @_ZN6icu_7517UCharsTrieBuilder5writeEPKDsi(ptr noundef nonnull align 8 dereferenceable(112) %this, ptr noundef nonnull %intUnits, i32 noundef %length.0)
  br label %return

return:                                           ; preds = %if.end19, %if.then
  %retval.0 = phi i32 [ %call25, %if.end19 ], [ %call, %if.then ]
  ret i32 %retval.0
}